Certificate:
    Data:
        Version: 3 (0x2)
        Serial Number: 14412295631461162090 (0xc802c28467281c6a)
    Signature Algorithm: sha256WithRSAEncryption
        Issuer: CN=QUIC Server Root CA
        Validity
            Not Before: Apr  4 17:20:41 2018 GMT
            Not After : Jul  3 17:20:41 2018 GMT
        Subject: CN=QUIC Server Root CA
        Subject Public Key Info:
            Public Key Algorithm: rsaEncryption
                Public-Key: (2048 bit)
                Modulus:
                    00:e1:cf:14:a3:9e:49:b7:39:6f:60:5c:06:42:b6:
                    e8:6d:3a:b1:d2:d5:95:5b:ef:29:6b:90:e1:9f:e7:
                    01:05:e3:eb:96:2c:41:52:f1:2a:82:88:30:13:96:
                    ca:8f:0f:c1:23:e2:f1:18:48:00:a2:3b:26:8b:1f:
                    08:fb:13:e4:29:b9:ac:31:57:97:a4:6d:12:7d:d6:
                    2f:16:d1:3c:d1:da:ac:88:e4:44:9e:d3:ae:0a:57:
                    0a:2a:05:c6:f9:cb:0f:4a:17:b5:b2:a8:1e:33:74:
                    79:1f:10:70:6d:de:63:98:e0:47:80:34:f1:a1:c3:
                    f5:c1:62:b5:09:a4:53:72:9e:7c:cf:8b:0f:12:34:
                    9b:ca:44:a0:dc:04:2c:dd:ce:f7:4c:dd:93:01:8a:
                    36:da:2b:44:6c:bb:ec:43:9b:f0:05:b4:c5:4a:e2:
                    c2:c9:78:4e:0b:d5:ee:e0:86:7c:b7:df:c0:06:af:
                    30:2b:d8:2e:2f:02:c3:bb:97:ce:dd:48:4a:2a:67:
                    6b:9c:29:0e:48:d1:3e:34:f1:ad:7b:a7:cb:a1:30:
                    a4:6f:3d:d2:11:fa:e7:68:2f:16:3e:c7:26:82:09:
                    dd:eb:6f:39:15:31:28:f3:cf:40:3d:83:fb:b3:82:
                    e7:eb:eb:f5:32:9d:b5:f7:d2:93:4e:52:cb:68:c7:
                    0f:af
                Exponent: 65537 (0x10001)
        X509v3 extensions:
            X509v3 Basic Constraints: critical
                CA:TRUE
            X509v3 Subject Key Identifier: 
                D6:7F:E2:9C:3B:3B:1E:0A:80:14:35:41:C4:1B:E7:E0:59:38:E0:E6
            X509v3 Key Usage: critical
                Certificate Sign, CRL Sign
    Signature Algorithm: sha256WithRSAEncryption
         dc:d8:c4:7b:26:68:53:eb:38:8b:5a:73:86:5e:15:8e:4e:4a:
         71:b9:62:03:5d:47:62:49:87:dd:e4:2c:de:ca:0a:9d:4c:f7:
         45:5d:5b:9f:81:69:44:02:7b:8a:16:a0:ff:fb:50:79:90:4b:
         2f:24:a8:4e:b4:a5:73:1d:d0:aa:1d:e0:89:10:53:67:bb:92:
         e1:dc:f6:ae:1a:02:e5:d3:dd:96:17:2f:73:76:e3:3f:f9:65:
         e1:eb:ff:bc:ad:83:ab:7a:fb:4e:a5:65:69:40:f6:1d:44:f1:
         7a:5f:77:95:c7:1f:c4:96:51:88:c9:65:ef:d9:73:45:c0:dd:
         bc:2c:ed:8f:06:59:d3:97:f2:8b:94:5e:a3:44:37:6f:f1:eb:
         0e:ae:1e:ee:18:a8:29:27:06:4f:9c:65:20:a0:42:ba:69:3f:
         15:c1:e2:e4:dc:53:68:2b:40:ce:04:64:91:4b:ee:26:2e:41:
         bd:91:31:f2:2d:44:ea:cb:f7:cb:83:32:d8:f9:36:b2:5d:cc:
         88:61:74:83:22:3d:a2:21:a0:ba:4b:ad:b3:0f:46:0c:7c:e8:
         e7:45:bd:0a:2c:18:29:b5:7f:2f:95:c8:6f:c9:50:c3:7d:2b:
         ec:9b:21:6f:5b:81:44:98:55:34:8c:c0:56:f1:08:d6:2d:a1:
         c3:24:ba:0e
-----BEGIN CERTIFICATE-----
MIIDATCCAemgAwIBAgIJAMgCwoRnKBxqMA0GCSqGSIb3DQEBCwUAMB4xHDAaBgNV
BAMME1FVSUMgU2VydmVyIFJvb3QgQ0EwHhcNMTgwNDA0MTcyMDQxWhcNMTgwNzAz
MTcyMDQxWjAeMRwwGgYDVQQDDBNRVUlDIFNlcnZlciBSb290IENBMIIBIjANBgkq
hkiG9w0BAQEFAAOCAQ8AMIIBCgKCAQEA4c8Uo55JtzlvYFwGQrbobTqx0tWVW+8p
a5Dhn+cBBePrlixBUvEqgogwE5bKjw/BI+LxGEgAojsmix8I+xPkKbmsMVeXpG0S
fdYvFtE80dqsiOREntOuClcKKgXG+csPShe1sqgeM3R5HxBwbd5jmOBHgDTxocP1
wWK1CaRTcp58z4sPEjSbykSg3AQs3c73TN2TAYo22itEbLvsQ5vwBbTFSuLCyXhO
C9Xu4IZ8t9/ABq8wK9guLwLDu5fO3UhKKmdrnCkOSNE+NPGte6fLoTCkbz3SEfrn
aC8WPscmggnd6285FTEo889APYP7s4Ln6+v1Mp2199KTTlLLaMcPrwIDAQABo0Iw
QDAPBgNVHRMBAf8EBTADAQH/MB0GA1UdDgQWBBTWf+KcOzseCoAUNUHEG+fgWTjg
5jAOBgNVHQ8BAf8EBAMCAQYwDQYJKoZIhvcNAQELBQADggEBANzYxHsmaFPrOIta
c4ZeFY5OSnG5YgNdR2JJh93kLN7KCp1M90VdW5+BaUQCe4oWoP/7UHmQSy8kqE60
pXMd0Kod4IkQU2e7kuHc9q4aAuXT3ZYXL3N24z/5ZeHr/7ytg6t6+06lZWlA9h1E
8Xpfd5XHH8SWUYjJZe/Zc0XA3bws7Y8GWdOX8ouUXqNEN2/x6w6uHu4YqCknBk+c
ZSCgQrppPxXB4uTcU2grQM4EZJFL7iYuQb2RMfItROrL98uDMtj5NrJdzIhhdIMi
PaIhoLpLrbMPRgx86OdFvQosGCm1fy+VyG/JUMN9K+ybIW9bgUSYVTSMwFbxCNYt
ocMkug4=
-----END CERTIFICATE-----
