Certificate:
    Data:
        Version: 3 (0x2)
        Serial Number: 17785927793313846306 (0xf6d44f1819381422)
    Signature Algorithm: sha256WithRSAEncryption
        Issuer: CN=QUIC Server Root CA
        Validity
            Not Before: Apr  2 18:03:28 2018 GMT
            Not After : Apr  5 18:03:28 2018 GMT
        Subject: CN=QUIC Server Root CA
        Subject Public Key Info:
            Public Key Algorithm: rsaEncryption
                Public-Key: (2048 bit)
                Modulus:
                    00:df:c1:a1:8f:2d:f8:36:9f:ed:25:b4:0e:05:cb:
                    4f:4b:fc:a3:8c:7a:a7:c5:12:03:d2:a3:e3:49:b1:
                    b1:55:a0:f1:04:47:c4:2a:75:26:3a:11:a3:60:c7:
                    b0:32:6a:12:37:5a:87:8e:b6:7a:e5:f0:a3:ee:6e:
                    a8:55:99:17:d5:f3:de:45:24:59:81:63:6a:c1:28:
                    31:dd:38:11:c6:44:db:5a:fc:be:04:89:5e:b1:8e:
                    4a:02:99:d5:6f:91:cf:52:5e:c0:63:3d:f7:a7:d7:
                    a6:fb:16:aa:cd:5c:12:bc:3b:22:84:8b:0c:e3:03:
                    b4:e7:30:6e:3b:74:ec:3f:a3:e2:ee:16:0b:fa:30:
                    7e:94:3a:3d:f0:b3:5a:c8:25:39:d8:34:8d:50:01:
                    e8:b7:66:f6:3b:5d:2b:3d:0d:6e:82:ef:52:05:b6:
                    ba:d1:fa:9c:ef:ad:ca:15:95:5a:20:64:f6:ec:35:
                    7a:d3:33:d9:7b:ae:7f:14:49:b5:eb:c3:07:cb:ca:
                    fa:85:9a:44:9a:c4:88:0b:d4:7a:11:c7:42:6f:f7:
                    b2:53:79:9c:06:0c:f0:71:34:79:a7:a3:b1:84:49:
                    9e:43:8c:9e:62:ed:fd:b5:db:0d:b3:44:05:41:cb:
                    b5:df:05:ed:42:eb:35:50:81:a9:89:86:9e:1a:30:
                    c1:8f
                Exponent: 65537 (0x10001)
        X509v3 extensions:
            X509v3 Basic Constraints: critical
                CA:TRUE
            X509v3 Subject Key Identifier: 
                C4:65:37:7B:6B:9C:E5:76:75:DA:BA:E5:57:40:3A:F6:7C:27:BD:65
            X509v3 Key Usage: critical
                Certificate Sign, CRL Sign
    Signature Algorithm: sha256WithRSAEncryption
         76:b0:66:39:36:29:09:88:47:0f:e2:f8:9f:65:92:60:df:c3:
         ad:67:f7:d3:5e:df:60:17:bc:9c:30:c6:a7:44:05:9c:4e:84:
         aa:09:b9:4f:95:6e:73:94:72:f7:8d:29:d8:46:76:29:47:d6:
         f9:1d:c8:fd:b0:6c:79:22:95:44:05:3b:0f:cc:05:5f:e4:5c:
         db:5c:fc:6c:c1:c6:19:7c:3a:d0:4e:3d:90:d0:4b:be:15:22:
         ad:3c:12:5d:34:87:87:4e:dc:a2:68:6f:d7:5e:d2:a3:17:e2:
         31:10:b3:f5:0b:10:53:42:43:e6:c6:3f:09:e0:5b:74:1b:e2:
         c6:97:c3:2d:4a:9e:63:34:45:a6:83:f7:36:08:7d:3b:fc:81:
         78:48:57:f0:6e:bc:c9:2d:35:3f:e6:76:a7:85:de:51:1b:98:
         3c:21:5c:1b:e2:c2:c1:b6:37:b6:45:0b:3b:c5:2b:03:f1:a8:
         39:bd:5d:0a:68:18:e6:0f:63:61:65:20:21:c6:ed:ca:b3:82:
         19:6f:66:f7:cc:05:6e:d1:2d:26:31:4c:1b:f3:26:7f:1f:a9:
         37:85:1a:82:f9:88:93:6d:81:3a:e6:06:f3:98:3c:24:57:45:
         4d:36:e8:85:31:45:3d:72:58:84:cb:c2:d7:68:16:07:89:92:
         ee:0a:3d:5e
-----BEGIN CERTIFICATE-----
MIIDATCCAemgAwIBAgIJAPbUTxgZOBQiMA0GCSqGSIb3DQEBCwUAMB4xHDAaBgNV
BAMME1FVSUMgU2VydmVyIFJvb3QgQ0EwHhcNMTgwNDAyMTgwMzI4WhcNMTgwNDA1
MTgwMzI4WjAeMRwwGgYDVQQDDBNRVUlDIFNlcnZlciBSb290IENBMIIBIjANBgkq
hkiG9w0BAQEFAAOCAQ8AMIIBCgKCAQEA38Ghjy34Np/tJbQOBctPS/yjjHqnxRID
0qPjSbGxVaDxBEfEKnUmOhGjYMewMmoSN1qHjrZ65fCj7m6oVZkX1fPeRSRZgWNq
wSgx3TgRxkTbWvy+BIlesY5KApnVb5HPUl7AYz33p9em+xaqzVwSvDsihIsM4wO0
5zBuO3TsP6Pi7hYL+jB+lDo98LNayCU52DSNUAHot2b2O10rPQ1ugu9SBba60fqc
763KFZVaIGT27DV60zPZe65/FEm168MHy8r6hZpEmsSIC9R6EcdCb/eyU3mcBgzw
cTR5p6OxhEmeQ4yeYu39tdsNs0QFQcu13wXtQus1UIGpiYaeGjDBjwIDAQABo0Iw
QDAPBgNVHRMBAf8EBTADAQH/MB0GA1UdDgQWBBTEZTd7a5zldnXauuVXQDr2fCe9
ZTAOBgNVHQ8BAf8EBAMCAQYwDQYJKoZIhvcNAQELBQADggEBAHawZjk2KQmIRw/i
+J9lkmDfw61n99Ne32AXvJwwxqdEBZxOhKoJuU+VbnOUcveNKdhGdilH1vkdyP2w
bHkilUQFOw/MBV/kXNtc/GzBxhl8OtBOPZDQS74VIq08El00h4dO3KJob9de0qMX
4jEQs/ULEFNCQ+bGPwngW3Qb4saXwy1KnmM0RaaD9zYIfTv8gXhIV/BuvMktNT/m
dqeF3lEbmDwhXBviwsG2N7ZFCzvFKwPxqDm9XQpoGOYPY2FlICHG7cqzghlvZvfM
BW7RLSYxTBvzJn8fqTeFGoL5iJNtgTrmBvOYPCRXRU026IUxRT1yWITLwtdoFgeJ
ku4KPV4=
-----END CERTIFICATE-----
